target datalayout = "e-m:e-p270:32:32-p271:32:32-p272:64:64-i64:64-i128:128-f80:128-n8:16:32:64-S128"
target triple = "x86_64-pc-linux-gnu"

%struct.nghttp2_frame_hd = type { i64, i32, i8, i8, i8 }
%struct.nghttp2_extension = type { %struct.nghttp2_frame_hd, ptr }
%struct.nghttp2_ext_altsvc = type { ptr, i64, ptr, i64 }

; Function Attrs: nounwind uwtable
define hidden void @nghttp2_frame_unpack_altsvc_payload(ptr noundef %0, i64 noundef %1, ptr noundef %2, i64 noundef %3) #0 {
  %5 = alloca ptr, align 8
  %6 = alloca i64, align 8
  %7 = alloca ptr, align 8
  %8 = alloca i64, align 8
  %9 = alloca ptr, align 8
  %10 = alloca ptr, align 8
  store ptr %0, ptr %5, align 8, !tbaa !8
  store i64 %1, ptr %6, align 8, !tbaa !18
  store ptr %2, ptr %7, align 8, !tbaa !3
  store i64 %3, ptr %8, align 8, !tbaa !18
  call void @llvm.lifetime.start.p0(i64 8, ptr %9) #7
  call void @llvm.lifetime.start.p0(i64 8, ptr %10) #7
  %11 = load ptr, ptr %5, align 8, !tbaa !8
  %12 = getelementptr inbounds nuw %struct.nghttp2_extension, ptr %11, i32 0, i32 1
  %13 = load ptr, ptr %12, align 8, !tbaa !49
  store ptr %13, ptr %9, align 8, !tbaa !8
  %14 = load ptr, ptr %7, align 8, !tbaa !3
  store ptr %14, ptr %10, align 8, !tbaa !3
  %15 = load ptr, ptr %10, align 8, !tbaa !3
  %16 = load ptr, ptr %9, align 8, !tbaa !8
  %17 = getelementptr inbounds nuw %struct.nghttp2_ext_altsvc, ptr %16, i32 0, i32 0
  store ptr %15, ptr %17, align 8, !tbaa !51
  %18 = load i64, ptr %6, align 8, !tbaa !18
  %19 = load ptr, ptr %10, align 8, !tbaa !3
  %20 = getelementptr inbounds nuw i8, ptr %19, i64 %18
  store ptr %20, ptr %10, align 8, !tbaa !3
  %21 = load i64, ptr %6, align 8, !tbaa !18
  %22 = load ptr, ptr %9, align 8, !tbaa !8
  %23 = getelementptr inbounds nuw %struct.nghttp2_ext_altsvc, ptr %22, i32 0, i32 1
  store i64 %21, ptr %23, align 8, !tbaa !53
  %24 = load ptr, ptr %10, align 8, !tbaa !3
  %25 = load ptr, ptr %9, align 8, !tbaa !8
  %26 = getelementptr inbounds nuw %struct.nghttp2_ext_altsvc, ptr %25, i32 0, i32 2
  store ptr %24, ptr %26, align 8, !tbaa !54
  %27 = load ptr, ptr %7, align 8, !tbaa !3
  %28 = load i64, ptr %8, align 8, !tbaa !18
  %29 = getelementptr inbounds nuw i8, ptr %27, i64 %28
  %30 = load ptr, ptr %10, align 8, !tbaa !3
  %31 = ptrtoint ptr %29 to i64
  %32 = ptrtoint ptr %30 to i64
  %33 = sub i64 %31, %32
  %34 = load ptr, ptr %9, align 8, !tbaa !8
  %35 = getelementptr inbounds nuw %struct.nghttp2_ext_altsvc, ptr %34, i32 0, i32 3
  store i64 %33, ptr %35, align 8, !tbaa !55
  call void @llvm.lifetime.end.p0(i64 8, ptr %10) #7
  call void @llvm.lifetime.end.p0(i64 8, ptr %9) #7
  ret void
}