; Function Attrs: mustprogress nofree norecurse nosync nounwind willreturn memory(write, argmem: readwrite, inaccessiblemem: none) uwtable
define hidden void @nghttp2_frame_unpack_altsvc_payload(ptr noundef readonly captures(none) %0, i64 noundef %1, ptr noundef %2, i64 noundef %3) local_unnamed_addr #8 {
  %5 = getelementptr inbounds nuw i8, ptr %0, i64 16
  %6 = load ptr, ptr %5, align 8, !tbaa !46
  store ptr %2, ptr %6, align 8, !tbaa !48
  %7 = getelementptr inbounds nuw i8, ptr %2, i64 %1
  %8 = getelementptr inbounds nuw i8, ptr %6, i64 8
  store i64 %1, ptr %8, align 8, !tbaa !50
  %9 = getelementptr inbounds nuw i8, ptr %6, i64 16
  store ptr %7, ptr %9, align 8, !tbaa !51
  %gepdiff = sub nsw i64 %3, %1
  %10 = getelementptr inbounds nuw i8, ptr %6, i64 24
  store i64 %gepdiff, ptr %10, align 8, !tbaa !52
  ret void
}